; Function Attrs: nounwind uwtable
define internal range(i32 0, 2) i32 @test_validate_msg_mac_alg_protection_bad() #0 {
  %1 = alloca [19 x i8], align 16
  call void @llvm.lifetime.start.p0(i64 19, ptr nonnull %1) #7
  call void @llvm.memcpy.p0.p0.i64(ptr noundef nonnull align 16 dereferenceable(19) %1, ptr noundef nonnull align 16 dereferenceable(19) @__const.test_validate_msg_mac_alg_protection_bad.sec_bad, i64 19, i1 false)
  %2 = tail call fastcc ptr @set_up(ptr noundef nonnull @.str.62)
  %3 = icmp eq ptr %2, null
  br i1 %3, label %36, label %4

4:                                                ; preds = %0
  %5 = getelementptr inbounds nuw i8, ptr %2, i64 32
  store ptr null, ptr %5, align 8, !tbaa !29
  %6 = getelementptr inbounds nuw i8, ptr %2, i64 8
  store i32 0, ptr %6, align 8, !tbaa !24
  %7 = getelementptr inbounds nuw i8, ptr %2, i64 16
  %8 = load ptr, ptr %7, align 8, !tbaa !28
  %9 = call i32 @OSSL_CMP_CTX_set1_secretValue(ptr noundef %8, ptr noundef nonnull %1, i32 noundef 19) #7
  %10 = icmp ne i32 %9, 0
  %11 = zext i1 %10 to i32
  %12 = call i32 @test_true(ptr noundef nonnull @.str.14, i32 noundef 201, ptr noundef nonnull @.str.89, i32 noundef %11) #7
  %.not = icmp eq i32 %12, 0
  br i1 %.not, label %.thread, label %13

13:                                               ; preds = %4
  %14 = load ptr, ptr @ip_waiting_f, align 8, !tbaa !23
  %15 = load ptr, ptr @libctx, align 8, !tbaa !13
  %16 = call ptr @load_pkimsg(ptr noundef %14, ptr noundef %15) #7
  %17 = getelementptr inbounds nuw i8, ptr %2, i64 24
  store ptr %16, ptr %17, align 8, !tbaa !27
  %18 = call i32 @test_ptr(ptr noundef nonnull @.str.14, i32 noundef 202, ptr noundef nonnull @.str.88, ptr noundef %16) #7
  %.not13 = icmp eq i32 %18, 0
  br i1 %.not13, label %.thread, label %20

.thread:                                          ; preds = %4, %13
  %19 = getelementptr inbounds nuw i8, ptr %2, i64 24
  br label %.sink.split

20:                                               ; preds = %13
  %21 = load i32, ptr %6, align 8, !tbaa !24
  %22 = load ptr, ptr %7, align 8, !tbaa !28
  %23 = load ptr, ptr %17, align 8, !tbaa !27
  %24 = call i32 @ossl_cmp_msg_check_update(ptr noundef %22, ptr noundef %23, ptr noundef null, i32 noundef 0) #7
  %25 = call i32 @test_int_eq(ptr noundef nonnull @.str.14, i32 noundef 139, ptr noundef nonnull @.str.75, ptr noundef nonnull @.str.78, i32 noundef %21, i32 noundef %24) #7
  %26 = load ptr, ptr %7, align 8, !tbaa !28
  %27 = call ptr @OSSL_CMP_CTX_get0_validatedSrvCert(ptr noundef %26) #7
  %.not.i = icmp eq i32 %25, 0
  br i1 %.not.i, label %.sink.split, label %28

28:                                               ; preds = %20
  %29 = load i32, ptr %6, align 8, !tbaa !24
  %.not7.i = icmp eq i32 %29, 0
  br i1 %.not7.i, label %.sink.split, label %30

30:                                               ; preds = %28
  %31 = load ptr, ptr %5, align 8, !tbaa !29
  %32 = call i32 @test_ptr_eq(ptr noundef nonnull @.str.14, i32 noundef 142, ptr noundef nonnull @.str.79, ptr noundef nonnull @.str.80, ptr noundef %27, ptr noundef %31) #7
  %33 = icmp ne i32 %32, 0
  %34 = zext i1 %33 to i32
  br label %.sink.split

.sink.split:                                      ; preds = %30, %28, %20, %.thread
  %.sink.in = phi ptr [ %19, %.thread ], [ %17, %20 ], [ %17, %28 ], [ %17, %30 ]
  %.011.ph = phi i32 [ 0, %.thread ], [ 0, %20 ], [ 1, %28 ], [ %34, %30 ]
  %.sink = load ptr, ptr %.sink.in, align 8, !tbaa !27
  call void @OSSL_CMP_MSG_free(ptr noundef %.sink) #7
  %35 = load ptr, ptr %7, align 8, !tbaa !28
  call void @OSSL_CMP_CTX_free(ptr noundef %35) #7
  call void @CRYPTO_free(ptr noundef nonnull %2, ptr noundef nonnull @.str.14, i32 noundef 47) #7
  br label %36

36:                                               ; preds = %.sink.split, %0
  %.011 = phi i32 [ 0, %0 ], [ %.011.ph, %.sink.split ]
  call void @llvm.lifetime.end.p0(i64 19, ptr nonnull %1) #7
  ret i32 %.011
}